target datalayout = "e-m:e-p270:32:32-p271:32:32-p272:64:64-i64:64-i128:128-f80:128-n8:16:32:64-S128"
target triple = "x86_64-pc-linux-gnu"

%struct.pm_constant_pool_t = type { ptr, ptr, i32, i32 }
%struct.pm_constant_t = type { ptr, i64 }
%struct.pm_constant_pool_bucket_t = type { i32, i32 }

; Function Attrs: inlinehint nounwind sspstrong uwtable
define internal i32 @pm_constant_pool_hash(ptr noundef %0, i64 noundef %1) #6 {
  %3 = alloca ptr, align 8
  %4 = alloca i64, align 8
  %5 = alloca i32, align 4
  %6 = alloca i64, align 8
  store ptr %0, ptr %3, align 8, !tbaa !27
  store i64 %1, ptr %4, align 8, !tbaa !17
  call void @llvm.lifetime.start.p0(i64 4, ptr %5) #14
  store i32 5381, ptr %5, align 4, !tbaa !18
  call void @llvm.lifetime.start.p0(i64 8, ptr %6) #14
  store i64 0, ptr %6, align 8, !tbaa !17
  br label %7

7:                                                ; preds = %23, %2
  %8 = load i64, ptr %6, align 8, !tbaa !17
  %9 = load i64, ptr %4, align 8, !tbaa !17
  %10 = icmp ult i64 %8, %9
  br i1 %10, label %12, label %11

11:                                               ; preds = %7
  call void @llvm.lifetime.end.p0(i64 8, ptr %6) #14
  br label %26

12:                                               ; preds = %7
  %13 = load i32, ptr %5, align 4, !tbaa !18
  %14 = shl i32 %13, 5
  %15 = load i32, ptr %5, align 4, !tbaa !18
  %16 = add i32 %14, %15
  %17 = load ptr, ptr %3, align 8, !tbaa !27
  %18 = load i64, ptr %6, align 8, !tbaa !17
  %19 = getelementptr i8, ptr %17, i64 %18
  %20 = load i8, ptr %19, align 1, !tbaa !33
  %21 = zext i8 %20 to i32
  %22 = add i32 %16, %21
  store i32 %22, ptr %5, align 4, !tbaa !18
  br label %23

23:                                               ; preds = %12
  %24 = load i64, ptr %6, align 8, !tbaa !17
  %25 = add i64 %24, 1
  store i64 %25, ptr %6, align 8, !tbaa !17
  br label %7, !llvm.loop !34

26:                                               ; preds = %11
  %27 = load i32, ptr %5, align 4, !tbaa !18
  call void @llvm.lifetime.end.p0(i64 4, ptr %5) #14
  ret i32 %27
}

; Function Attrs: nounwind sspstrong uwtable
define hidden i32 @pm_constant_pool_find(ptr noundef %0, ptr noundef %1, i64 noundef %2) #0 {
  %4 = alloca i32, align 4
  %5 = alloca ptr, align 8
  %6 = alloca ptr, align 8
  %7 = alloca i64, align 8
  %8 = alloca i32, align 4
  %9 = alloca i32, align 4
  %10 = alloca i32, align 4
  %11 = alloca ptr, align 8
  %12 = alloca ptr, align 8
  %13 = alloca i32, align 4
  store ptr %0, ptr %5, align 8, !tbaa !7
  store ptr %1, ptr %6, align 8, !tbaa !27
  store i64 %2, ptr %7, align 8, !tbaa !17
  call void @llvm.lifetime.start.p0(i64 4, ptr %8) #14
  %14 = load ptr, ptr %5, align 8, !tbaa !7
  %15 = getelementptr inbounds nuw %struct.pm_constant_pool_t, ptr %14, i32 0, i32 3
  %16 = load i32, ptr %15, align 4, !tbaa !26
  %17 = sub i32 %16, 1
  store i32 %17, ptr %8, align 4, !tbaa !18
  call void @llvm.lifetime.start.p0(i64 4, ptr %9) #14
  %18 = load ptr, ptr %6, align 8, !tbaa !27
  %19 = load i64, ptr %7, align 8, !tbaa !17
  %20 = call i32 @pm_constant_pool_hash(ptr noundef %18, i64 noundef %19)
  store i32 %20, ptr %9, align 4, !tbaa !18
  call void @llvm.lifetime.start.p0(i64 4, ptr %10) #14
  %21 = load i32, ptr %9, align 4, !tbaa !18
  %22 = load i32, ptr %8, align 4, !tbaa !18
  %23 = and i32 %21, %22
  store i32 %23, ptr %10, align 4, !tbaa !18
  call void @llvm.lifetime.start.p0(i64 8, ptr %11) #14
  br label %24

24:                                               ; preds = %69, %3
  %25 = load ptr, ptr %5, align 8, !tbaa !7
  %26 = getelementptr inbounds nuw %struct.pm_constant_pool_t, ptr %25, i32 0, i32 0
  %27 = load ptr, ptr %26, align 8, !tbaa !22
  %28 = load i32, ptr %10, align 4, !tbaa !18
  %29 = zext i32 %28 to i64
  %30 = getelementptr %struct.pm_constant_pool_bucket_t, ptr %27, i64 %29
  store ptr %30, ptr %11, align 8, !tbaa !7
  %31 = load ptr, ptr %11, align 8, !tbaa !7
  %32 = load i32, ptr %31, align 4
  %33 = and i32 %32, 1073741823
  %34 = icmp ne i32 %33, 0
  br i1 %34, label %35, label %70

35:                                               ; preds = %24
  call void @llvm.lifetime.start.p0(i64 8, ptr %12) #14
  %36 = load ptr, ptr %5, align 8, !tbaa !7
  %37 = getelementptr inbounds nuw %struct.pm_constant_pool_t, ptr %36, i32 0, i32 1
  %38 = load ptr, ptr %37, align 8, !tbaa !24
  %39 = load ptr, ptr %11, align 8, !tbaa !7
  %40 = load i32, ptr %39, align 4
  %41 = and i32 %40, 1073741823
  %42 = sub i32 %41, 1
  %43 = sext i32 %42 to i64
  %44 = getelementptr %struct.pm_constant_t, ptr %38, i64 %43
  store ptr %44, ptr %12, align 8, !tbaa !7
  %45 = load ptr, ptr %12, align 8, !tbaa !7
  %46 = getelementptr inbounds nuw %struct.pm_constant_t, ptr %45, i32 0, i32 1
  %47 = load i64, ptr %46, align 8, !tbaa !29
  %48 = load i64, ptr %7, align 8, !tbaa !17
  %49 = icmp eq i64 %47, %48
  br i1 %49, label %50, label %62

50:                                               ; preds = %35
  %51 = load ptr, ptr %12, align 8, !tbaa !7
  %52 = getelementptr inbounds nuw %struct.pm_constant_t, ptr %51, i32 0, i32 0
  %53 = load ptr, ptr %52, align 8, !tbaa !31
  %54 = load ptr, ptr %6, align 8, !tbaa !27
  %55 = load i64, ptr %7, align 8, !tbaa !17
  %56 = call i32 @memcmp(ptr noundef %53, ptr noundef %54, i64 noundef %55) #15
  %57 = icmp eq i32 %56, 0
  br i1 %57, label %58, label %62

58:                                               ; preds = %50
  %59 = load ptr, ptr %11, align 8, !tbaa !7
  %60 = load i32, ptr %59, align 4
  %61 = and i32 %60, 1073741823
  store i32 %61, ptr %4, align 4
  store i32 1, ptr %13, align 4
  br label %67

62:                                               ; preds = %50, %35
  %63 = load i32, ptr %10, align 4, !tbaa !18
  %64 = add i32 %63, 1
  %65 = load i32, ptr %8, align 4, !tbaa !18
  %66 = and i32 %64, %65
  store i32 %66, ptr %10, align 4, !tbaa !18
  store i32 0, ptr %13, align 4
  br label %67

67:                                               ; preds = %62, %58
  call void @llvm.lifetime.end.p0(i64 8, ptr %12) #14
  %68 = load i32, ptr %13, align 4
  switch i32 %68, label %71 [
    i32 0, label %69
  ]

69:                                               ; preds = %67
  br label %24, !llvm.loop !32

70:                                               ; preds = %24
  store i32 0, ptr %4, align 4
  store i32 1, ptr %13, align 4
  br label %71

71:                                               ; preds = %70, %67
  call void @llvm.lifetime.end.p0(i64 8, ptr %11) #14
  call void @llvm.lifetime.end.p0(i64 4, ptr %10) #14
  call void @llvm.lifetime.end.p0(i64 4, ptr %9) #14
  call void @llvm.lifetime.end.p0(i64 4, ptr %8) #14
  %72 = load i32, ptr %4, align 4
  ret i32 %72
}