; Function Attrs: nofree nounwind sspstrong memory(read, inaccessiblemem: none) uwtable
define hidden range(i32 0, 1073741824) i32 @pm_constant_pool_find(ptr noundef readonly captures(none) %0, ptr noundef readonly captures(none) %1, i64 noundef %2) local_unnamed_addr #11 {
  %4 = getelementptr inbounds nuw i8, ptr %0, i64 20
  %5 = load i32, ptr %4, align 4, !tbaa !24
  %6 = add i32 %5, -1
  %.not.i = icmp eq i64 %2, 0
  br i1 %.not.i, label %pm_constant_pool_hash.exit, label %.lr.ph.i

.lr.ph.i:                                         ; preds = %3, %.lr.ph.i
  %.09.i = phi i64 [ %12, %.lr.ph.i ], [ 0, %3 ]
  %.078.i = phi i32 [ %11, %.lr.ph.i ], [ 5381, %3 ]
  %7 = mul i32 %.078.i, 33
  %8 = getelementptr i8, ptr %1, i64 %.09.i
  %9 = load i8, ptr %8, align 1, !tbaa !25
  %10 = zext i8 %9 to i32
  %11 = add i32 %7, %10
  %12 = add nuw i64 %.09.i, 1
  %exitcond.not.i = icmp eq i64 %12, %2
  br i1 %exitcond.not.i, label %pm_constant_pool_hash.exit, label %.lr.ph.i, !llvm.loop !26

pm_constant_pool_hash.exit:                       ; preds = %.lr.ph.i, %3
  %.07.lcssa.i = phi i32 [ 5381, %3 ], [ %11, %.lr.ph.i ]
  %13 = load ptr, ptr %0, align 8, !tbaa !20
  %.02028 = and i32 %.07.lcssa.i, %6
  %14 = zext i32 %.02028 to i64
  %15 = getelementptr %struct.pm_constant_pool_bucket_t, ptr %13, i64 %14
  %16 = load i32, ptr %15, align 4
  %17 = and i32 %16, 1073741823
  %.not29 = icmp eq i32 %17, 0
  br i1 %.not29, label %.thread, label %.lr.ph

.lr.ph:                                           ; preds = %pm_constant_pool_hash.exit
  %18 = getelementptr inbounds nuw i8, ptr %0, i64 8
  %19 = load ptr, ptr %18, align 8, !tbaa !22
  br label %20

20:                                               ; preds = %.lr.ph, %31
  %21 = phi i32 [ %17, %.lr.ph ], [ %36, %31 ]
  %.02030 = phi i32 [ %.02028, %.lr.ph ], [ %.020, %31 ]
  %22 = zext nneg i32 %21 to i64
  %23 = getelementptr %struct.pm_constant_t, ptr %19, i64 %22
  %24 = getelementptr i8, ptr %23, i64 -8
  %25 = load i64, ptr %24, align 8, !tbaa !27
  %26 = icmp eq i64 %25, %2
  br i1 %26, label %27, label %31

27:                                               ; preds = %20
  %28 = getelementptr i8, ptr %23, i64 -16
  %29 = load ptr, ptr %28, align 8, !tbaa !30
  %bcmp = tail call i32 @bcmp(ptr %29, ptr %1, i64 %2)
  %30 = icmp eq i32 %bcmp, 0
  br i1 %30, label %.thread, label %31

31:                                               ; preds = %20, %27
  %32 = add i32 %.02030, 1
  %.020 = and i32 %32, %6
  %33 = zext i32 %.020 to i64
  %34 = getelementptr %struct.pm_constant_pool_bucket_t, ptr %13, i64 %33
  %35 = load i32, ptr %34, align 4
  %36 = and i32 %35, 1073741823
  %.not = icmp eq i32 %36, 0
  br i1 %.not, label %.thread, label %20, !llvm.loop !31

.thread:                                          ; preds = %31, %27, %pm_constant_pool_hash.exit
  %.lcssa = phi i32 [ 0, %pm_constant_pool_hash.exit ], [ %21, %27 ], [ 0, %31 ]
  ret i32 %.lcssa
}